target datalayout = "e-m:e-p270:32:32-p271:32:32-p272:64:64-i64:64-i128:128-f80:128-n8:16:32:64-S128"
target triple = "x86_64-pc-linux-gnu"

%struct.H5S_t = type { %struct.H5S_extent_t, %struct.H5S_select_t }
%struct.H5S_extent_t = type { %struct.H5O_shared_t, i32, i32, i64, i32, ptr, ptr }
%struct.H5O_shared_t = type { i32, ptr, i32, %union.anon }
%union.anon = type { %struct.H5O_mesg_loc_t }
%struct.H5O_mesg_loc_t = type { i32, i64 }
%struct.H5S_select_t = type { ptr, i8, [32 x i64], i64, %union.anon.0 }
%union.anon.0 = type { ptr }
%struct.H5S_hyper_sel_t = type { i32, %struct.H5S_hyper_diminfo_t, i32, i64, ptr }
%struct.H5S_hyper_diminfo_t = type { [32 x %struct.H5S_hyper_dim_t], [32 x %struct.H5S_hyper_dim_t], [32 x i64], [32 x i64] }
%struct.H5S_hyper_dim_t = type { i64, i64, i64, i64 }
%struct.H5S_select_class_t = type { i32, ptr, ptr, ptr, ptr, ptr, ptr, ptr, ptr, ptr, ptr, ptr, ptr, ptr, ptr, ptr, ptr, ptr, ptr, ptr, ptr }

@H5S_init_g = external global i8, align 1
@H5_libterm_g = external global i8, align 1
@.str = private unnamed_addr constant [102 x i8] c"generated/home/dtcxzyw/WorkSpace/Projects/compilers/llvm-opt-benchmark/bench/hdf5/hdf5/src/H5Shyper.c\00", align 1
@H5E_FUNC_g = external global i64, align 8
@H5E_CANTINIT_g = external global i64, align 8
@.str.2 = private unnamed_addr constant [32 x i8] c"interface initialization failed\00", align 1
@__func__.H5S_hyper_get_clip_extent = private unnamed_addr constant [26 x i8] c"H5S_hyper_get_clip_extent\00", align 1

; Function Attrs: nounwind uwtable
define internal i64 @H5S__hyper_get_clip_extent_real(ptr noundef %0, i64 noundef %1, i1 noundef zeroext %2) #0 {
  %4 = alloca ptr, align 8
  %5 = alloca i64, align 8
  %6 = alloca i8, align 1
  %7 = alloca ptr, align 8
  %8 = alloca i64, align 8
  %9 = alloca i64, align 8
  %10 = alloca i64, align 8
  store ptr %0, ptr %4, align 8, !tbaa !3
  store i64 %1, ptr %5, align 8, !tbaa !15
  %11 = zext i1 %2 to i8
  store i8 %11, ptr %6, align 1, !tbaa !8
  call void @llvm.lifetime.start.p0(i64 8, ptr %7) #7
  call void @llvm.lifetime.start.p0(i64 8, ptr %8) #7
  call void @llvm.lifetime.start.p0(i64 8, ptr %9) #7
  call void @llvm.lifetime.start.p0(i64 8, ptr %10) #7
  store i64 0, ptr %10, align 8, !tbaa !15
  %12 = load i8, ptr @H5S_init_g, align 1, !tbaa !8, !range !12, !noundef !13
  %13 = trunc i8 %12 to i1
  br i1 %13, label %18, label %14

14:                                               ; preds = %3
  %15 = load i8, ptr @H5_libterm_g, align 1, !tbaa !8, !range !12, !noundef !13
  %16 = trunc i8 %15 to i1
  %17 = xor i1 %16, true
  br label %18

18:                                               ; preds = %14, %3
  %19 = phi i1 [ true, %3 ], [ %17, %14 ]
  %20 = xor i1 %19, true
  %21 = xor i1 %20, true
  %22 = zext i1 %21 to i32
  %23 = sext i32 %22 to i64
  %24 = call i64 @llvm.expect.i64(i64 %23, i64 1)
  %25 = icmp ne i64 %24, 0
  br i1 %25, label %26, label %131

26:                                               ; preds = %18
  %27 = load ptr, ptr %4, align 8, !tbaa !3
  %28 = getelementptr inbounds nuw %struct.H5S_t, ptr %27, i32 0, i32 1
  %29 = getelementptr inbounds nuw %struct.H5S_select_t, ptr %28, i32 0, i32 4
  %30 = load ptr, ptr %29, align 8, !tbaa !14
  %31 = getelementptr inbounds nuw %struct.H5S_hyper_sel_t, ptr %30, i32 0, i32 1
  %32 = getelementptr inbounds nuw %struct.H5S_hyper_diminfo_t, ptr %31, i32 0, i32 1
  %33 = load ptr, ptr %4, align 8, !tbaa !3
  %34 = getelementptr inbounds nuw %struct.H5S_t, ptr %33, i32 0, i32 1
  %35 = getelementptr inbounds nuw %struct.H5S_select_t, ptr %34, i32 0, i32 4
  %36 = load ptr, ptr %35, align 8, !tbaa !14
  %37 = getelementptr inbounds nuw %struct.H5S_hyper_sel_t, ptr %36, i32 0, i32 2
  %38 = load i32, ptr %37, align 8, !tbaa !30
  %39 = sext i32 %38 to i64
  %40 = getelementptr inbounds [32 x %struct.H5S_hyper_dim_t], ptr %32, i64 0, i64 %39
  store ptr %40, ptr %7, align 8, !tbaa !41
  %41 = load i64, ptr %5, align 8, !tbaa !15
  %42 = icmp eq i64 %41, 0
  br i1 %42, label %43, label %53

43:                                               ; preds = %26
  %44 = load i8, ptr %6, align 1, !tbaa !8, !range !12, !noundef !13
  %45 = trunc i8 %44 to i1
  br i1 %45, label %46, label %50

46:                                               ; preds = %43
  %47 = load ptr, ptr %7, align 8, !tbaa !41
  %48 = getelementptr inbounds nuw %struct.H5S_hyper_dim_t, ptr %47, i32 0, i32 0
  %49 = load i64, ptr %48, align 8, !tbaa !46
  br label %51

50:                                               ; preds = %43
  br label %51

51:                                               ; preds = %50, %46
  %52 = phi i64 [ %49, %46 ], [ 0, %50 ]
  store i64 %52, ptr %10, align 8, !tbaa !15
  br label %130

53:                                               ; preds = %26
  %54 = load ptr, ptr %7, align 8, !tbaa !41
  %55 = getelementptr inbounds nuw %struct.H5S_hyper_dim_t, ptr %54, i32 0, i32 3
  %56 = load i64, ptr %55, align 8, !tbaa !50
  %57 = icmp eq i64 %56, -1
  br i1 %57, label %66, label %58

58:                                               ; preds = %53
  %59 = load ptr, ptr %7, align 8, !tbaa !41
  %60 = getelementptr inbounds nuw %struct.H5S_hyper_dim_t, ptr %59, i32 0, i32 3
  %61 = load i64, ptr %60, align 8, !tbaa !50
  %62 = load ptr, ptr %7, align 8, !tbaa !41
  %63 = getelementptr inbounds nuw %struct.H5S_hyper_dim_t, ptr %62, i32 0, i32 1
  %64 = load i64, ptr %63, align 8, !tbaa !48
  %65 = icmp eq i64 %61, %64
  br i1 %65, label %66, label %72

66:                                               ; preds = %58, %53
  %67 = load ptr, ptr %7, align 8, !tbaa !41
  %68 = getelementptr inbounds nuw %struct.H5S_hyper_dim_t, ptr %67, i32 0, i32 0
  %69 = load i64, ptr %68, align 8, !tbaa !46
  %70 = load i64, ptr %5, align 8, !tbaa !15
  %71 = add i64 %69, %70
  store i64 %71, ptr %10, align 8, !tbaa !15
  br label %129

72:                                               ; preds = %58
  %73 = load i64, ptr %5, align 8, !tbaa !15
  %74 = load ptr, ptr %7, align 8, !tbaa !41
  %75 = getelementptr inbounds nuw %struct.H5S_hyper_dim_t, ptr %74, i32 0, i32 3
  %76 = load i64, ptr %75, align 8, !tbaa !50
  %77 = udiv i64 %73, %76
  store i64 %77, ptr %8, align 8, !tbaa !15
  %78 = load i64, ptr %5, align 8, !tbaa !15
  %79 = load i64, ptr %8, align 8, !tbaa !15
  %80 = load ptr, ptr %7, align 8, !tbaa !41
  %81 = getelementptr inbounds nuw %struct.H5S_hyper_dim_t, ptr %80, i32 0, i32 3
  %82 = load i64, ptr %81, align 8, !tbaa !50
  %83 = mul i64 %79, %82
  %84 = sub i64 %78, %83
  store i64 %84, ptr %9, align 8, !tbaa !15
  %85 = load i64, ptr %9, align 8, !tbaa !15
  %86 = icmp ugt i64 %85, 0
  br i1 %86, label %87, label %99

87:                                               ; preds = %72
  %88 = load ptr, ptr %7, align 8, !tbaa !41
  %89 = getelementptr inbounds nuw %struct.H5S_hyper_dim_t, ptr %88, i32 0, i32 0
  %90 = load i64, ptr %89, align 8, !tbaa !46
  %91 = load i64, ptr %8, align 8, !tbaa !15
  %92 = load ptr, ptr %7, align 8, !tbaa !41
  %93 = getelementptr inbounds nuw %struct.H5S_hyper_dim_t, ptr %92, i32 0, i32 1
  %94 = load i64, ptr %93, align 8, !tbaa !48
  %95 = mul i64 %91, %94
  %96 = add i64 %90, %95
  %97 = load i64, ptr %9, align 8, !tbaa !15
  %98 = add i64 %96, %97
  store i64 %98, ptr %10, align 8, !tbaa !15
  br label %128

99:                                               ; preds = %72
  %100 = load i8, ptr %6, align 1, !tbaa !8, !range !12, !noundef !13
  %101 = trunc i8 %100 to i1
  br i1 %101, label %102, label %112

102:                                              ; preds = %99
  %103 = load ptr, ptr %7, align 8, !tbaa !41
  %104 = getelementptr inbounds nuw %struct.H5S_hyper_dim_t, ptr %103, i32 0, i32 0
  %105 = load i64, ptr %104, align 8, !tbaa !46
  %106 = load i64, ptr %8, align 8, !tbaa !15
  %107 = load ptr, ptr %7, align 8, !tbaa !41
  %108 = getelementptr inbounds nuw %struct.H5S_hyper_dim_t, ptr %107, i32 0, i32 1
  %109 = load i64, ptr %108, align 8, !tbaa !48
  %110 = mul i64 %106, %109
  %111 = add i64 %105, %110
  store i64 %111, ptr %10, align 8, !tbaa !15
  br label %127

112:                                              ; preds = %99
  %113 = load ptr, ptr %7, align 8, !tbaa !41
  %114 = getelementptr inbounds nuw %struct.H5S_hyper_dim_t, ptr %113, i32 0, i32 0
  %115 = load i64, ptr %114, align 8, !tbaa !46
  %116 = load i64, ptr %8, align 8, !tbaa !15
  %117 = sub i64 %116, 1
  %118 = load ptr, ptr %7, align 8, !tbaa !41
  %119 = getelementptr inbounds nuw %struct.H5S_hyper_dim_t, ptr %118, i32 0, i32 1
  %120 = load i64, ptr %119, align 8, !tbaa !48
  %121 = mul i64 %117, %120
  %122 = add i64 %115, %121
  %123 = load ptr, ptr %7, align 8, !tbaa !41
  %124 = getelementptr inbounds nuw %struct.H5S_hyper_dim_t, ptr %123, i32 0, i32 3
  %125 = load i64, ptr %124, align 8, !tbaa !50
  %126 = add i64 %122, %125
  store i64 %126, ptr %10, align 8, !tbaa !15
  br label %127

127:                                              ; preds = %112, %102
  br label %128

128:                                              ; preds = %127, %87
  br label %129

129:                                              ; preds = %128, %66
  br label %130

130:                                              ; preds = %129, %51
  br label %131

131:                                              ; preds = %130, %18
  %132 = load i64, ptr %10, align 8, !tbaa !15
  call void @llvm.lifetime.end.p0(i64 8, ptr %10) #7
  call void @llvm.lifetime.end.p0(i64 8, ptr %9) #7
  call void @llvm.lifetime.end.p0(i64 8, ptr %8) #7
  call void @llvm.lifetime.end.p0(i64 8, ptr %7) #7
  ret i64 %132
}

; Function Attrs: nounwind uwtable
define i64 @H5S_hyper_get_clip_extent(ptr noundef %0, ptr noundef %1, i1 noundef zeroext %2) #0 {
  %4 = alloca ptr, align 8
  %5 = alloca ptr, align 8
  %6 = alloca i8, align 1
  %7 = alloca i64, align 8
  %8 = alloca i64, align 8
  %9 = alloca i8, align 1
  store ptr %0, ptr %4, align 8, !tbaa !3
  store ptr %1, ptr %5, align 8, !tbaa !3
  %10 = zext i1 %2 to i8
  store i8 %10, ptr %6, align 1, !tbaa !8
  call void @llvm.lifetime.start.p0(i64 8, ptr %7) #7
  call void @llvm.lifetime.start.p0(i64 8, ptr %8) #7
  store i64 0, ptr %8, align 8, !tbaa !15
  call void @llvm.lifetime.start.p0(i64 1, ptr %9) #7
  store i8 0, ptr %9, align 1, !tbaa !8
  %11 = load i8, ptr @H5S_init_g, align 1, !tbaa !8, !range !12, !noundef !13
  %12 = trunc i8 %11 to i1
  br i1 %12, label %17, label %13

13:                                               ; preds = %3
  %14 = load i8, ptr @H5_libterm_g, align 1, !tbaa !8, !range !12, !noundef !13
  %15 = trunc i8 %14 to i1
  %16 = xor i1 %15, true
  br label %17

17:                                               ; preds = %13, %3
  %18 = phi i1 [ false, %3 ], [ %16, %13 ]
  %19 = xor i1 %18, true
  %20 = xor i1 %19, true
  %21 = zext i1 %20 to i32
  %22 = sext i32 %21 to i64
  %23 = call i64 @llvm.expect.i64(i64 %22, i64 0)
  %24 = icmp ne i64 %23, 0
  br i1 %24, label %25, label %48

25:                                               ; preds = %17
  store i8 1, ptr @H5S_init_g, align 1, !tbaa !8
  %26 = call i32 @H5S__init_package()
  %27 = icmp slt i32 %26, 0
  br i1 %27, label %28, label %47

28:                                               ; preds = %25
  store i8 0, ptr @H5S_init_g, align 1, !tbaa !8
  br label %29

29:                                               ; preds = %28
  br label %30

30:                                               ; preds = %29
  br label %31

31:                                               ; preds = %30
  %32 = load i64, ptr @H5E_FUNC_g, align 8, !tbaa !15
  %33 = load i64, ptr @H5E_CANTINIT_g, align 8, !tbaa !15
  %34 = call i32 (ptr, ptr, i32, i64, i64, ptr, ...) @H5E_printf_stack(ptr noundef @.str, ptr noundef @__func__.H5S_hyper_get_clip_extent, i32 noundef 12103, i64 noundef %32, i64 noundef %33, ptr noundef @.str.2)
  br label %35

35:                                               ; preds = %31
  br label %36

36:                                               ; preds = %35
  store i8 1, ptr %9, align 1, !tbaa !8
  %37 = load i8, ptr %9, align 1, !tbaa !8, !range !12, !noundef !13
  %38 = trunc i8 %37 to i1
  %39 = zext i1 %38 to i8
  store i8 %39, ptr %9, align 1, !tbaa !8
  br label %40

40:                                               ; preds = %36
  br label %41

41:                                               ; preds = %40
  br label %42

42:                                               ; preds = %41
  store i64 0, ptr %8, align 8, !tbaa !15
  br label %90

43:                                               ; No predecessors!
  br label %44

44:                                               ; preds = %43
  br label %45

45:                                               ; preds = %44
  br label %46

46:                                               ; preds = %45
  br label %47

47:                                               ; preds = %46, %25
  br label %48

48:                                               ; preds = %47, %17
  %49 = load i8, ptr @H5S_init_g, align 1, !tbaa !8, !range !12, !noundef !13
  %50 = trunc i8 %49 to i1
  br i1 %50, label %55, label %51

51:                                               ; preds = %48
  %52 = load i8, ptr @H5_libterm_g, align 1, !tbaa !8, !range !12, !noundef !13
  %53 = trunc i8 %52 to i1
  %54 = xor i1 %53, true
  br label %55

55:                                               ; preds = %51, %48
  %56 = phi i1 [ true, %48 ], [ %54, %51 ]
  %57 = xor i1 %56, true
  %58 = xor i1 %57, true
  %59 = zext i1 %58 to i32
  %60 = sext i32 %59 to i64
  %61 = call i64 @llvm.expect.i64(i64 %60, i64 1)
  %62 = icmp ne i64 %61, 0
  br i1 %62, label %63, label %91

63:                                               ; preds = %55
  %64 = load ptr, ptr %5, align 8, !tbaa !3
  %65 = getelementptr inbounds nuw %struct.H5S_t, ptr %64, i32 0, i32 1
  %66 = getelementptr inbounds nuw %struct.H5S_select_t, ptr %65, i32 0, i32 0
  %67 = load ptr, ptr %66, align 8, !tbaa !43
  %68 = getelementptr inbounds nuw %struct.H5S_select_class_t, ptr %67, i32 0, i32 0
  %69 = load i32, ptr %68, align 8, !tbaa !44
  %70 = icmp eq i32 %69, 0
  br i1 %70, label %71, label %72

71:                                               ; preds = %63
  store i64 0, ptr %7, align 8, !tbaa !15
  br label %84

72:                                               ; preds = %63
  %73 = load ptr, ptr %5, align 8, !tbaa !3
  %74 = getelementptr inbounds nuw %struct.H5S_t, ptr %73, i32 0, i32 1
  %75 = getelementptr inbounds nuw %struct.H5S_select_t, ptr %74, i32 0, i32 3
  %76 = load i64, ptr %75, align 8, !tbaa !32
  %77 = load ptr, ptr %4, align 8, !tbaa !3
  %78 = getelementptr inbounds nuw %struct.H5S_t, ptr %77, i32 0, i32 1
  %79 = getelementptr inbounds nuw %struct.H5S_select_t, ptr %78, i32 0, i32 4
  %80 = load ptr, ptr %79, align 8, !tbaa !14
  %81 = getelementptr inbounds nuw %struct.H5S_hyper_sel_t, ptr %80, i32 0, i32 3
  %82 = load i64, ptr %81, align 8, !tbaa !31
  %83 = udiv i64 %76, %82
  store i64 %83, ptr %7, align 8, !tbaa !15
  br label %84

84:                                               ; preds = %72, %71
  %85 = load ptr, ptr %4, align 8, !tbaa !3
  %86 = load i64, ptr %7, align 8, !tbaa !15
  %87 = load i8, ptr %6, align 1, !tbaa !8, !range !12, !noundef !13
  %88 = trunc i8 %87 to i1
  %89 = call i64 @H5S__hyper_get_clip_extent_real(ptr noundef %85, i64 noundef %86, i1 noundef zeroext %88)
  store i64 %89, ptr %8, align 8, !tbaa !15
  br label %90

90:                                               ; preds = %84, %42
  br label %91

91:                                               ; preds = %90, %55
  %92 = load i64, ptr %8, align 8, !tbaa !15
  call void @llvm.lifetime.end.p0(i64 1, ptr %9) #7
  call void @llvm.lifetime.end.p0(i64 8, ptr %8) #7
  call void @llvm.lifetime.end.p0(i64 8, ptr %7) #7
  ret i64 %92
}