; Function Attrs: nounwind uwtable
define i64 @H5S_hyper_get_clip_extent(ptr noundef readonly captures(none) %0, ptr noundef readonly captures(none) %1, i1 noundef zeroext %2) local_unnamed_addr #0 {
  %4 = load i8, ptr @H5S_init_g, align 1, !tbaa !3, !range !7, !noundef !8
  %5 = trunc nuw i8 %4 to i1
  %6 = load i8, ptr @H5_libterm_g, align 1, !range !7
  %7 = trunc nuw i8 %6 to i1
  %8 = select i1 %5, i1 true, i1 %7
  br i1 %8, label %16, label %9, !prof !9

9:                                                ; preds = %3
  store i8 1, ptr @H5S_init_g, align 1, !tbaa !3
  %10 = tail call i32 @H5S__init_package() #14
  %11 = icmp slt i32 %10, 0
  br i1 %11, label %12, label %._crit_edge

._crit_edge:                                      ; preds = %9
  %.pre = load i8, ptr @H5S_init_g, align 1, !tbaa !3, !range !7
  %.pre9 = load i8, ptr @H5_libterm_g, align 1, !range !7
  %.pre10 = trunc nuw i8 %.pre to i1
  %.pre11 = trunc nuw i8 %.pre9 to i1
  br label %16

12:                                               ; preds = %9
  store i8 0, ptr @H5S_init_g, align 1, !tbaa !3
  %13 = load i64, ptr @H5E_FUNC_g, align 8, !tbaa !11
  %14 = load i64, ptr @H5E_CANTINIT_g, align 8, !tbaa !11
  %15 = tail call i32 (ptr, ptr, i32, i64, i64, ptr, ...) @H5E_printf_stack(ptr noundef nonnull @.str, ptr noundef nonnull @__func__.H5S_hyper_get_clip_extent, i32 noundef 12103, i64 noundef %13, i64 noundef %14, ptr noundef nonnull @.str.2) #14
  br label %H5S__hyper_get_clip_extent_real.exit

16:                                               ; preds = %._crit_edge, %3
  %.pre-phi12 = phi i1 [ %.pre11, %._crit_edge ], [ %7, %3 ]
  %.pre-phi = phi i1 [ %.pre10, %._crit_edge ], [ %5, %3 ]
  %17 = xor i1 %.pre-phi12, true
  %18 = select i1 %.pre-phi, i1 true, i1 %17
  br i1 %18, label %19, label %H5S__hyper_get_clip_extent_real.exit, !prof !9

19:                                               ; preds = %16
  %20 = getelementptr inbounds nuw i8, ptr %1, i64 80
  %21 = load ptr, ptr %20, align 8, !tbaa !41
  %22 = load i32, ptr %21, align 8, !tbaa !42
  %23 = icmp eq i32 %22, 0
  br i1 %23, label %.thread, label %31

.thread:                                          ; preds = %19
  %24 = getelementptr inbounds nuw i8, ptr %0, i64 360
  %25 = load ptr, ptr %24, align 8, !tbaa !10
  %26 = getelementptr inbounds nuw i8, ptr %25, i64 1032
  %27 = getelementptr inbounds nuw i8, ptr %25, i64 2568
  %28 = load i32, ptr %27, align 8, !tbaa !28
  %29 = sext i32 %28 to i64
  %30 = getelementptr inbounds [32 x %struct.H5S_hyper_dim_t], ptr %26, i64 0, i64 %29
  br label %45

31:                                               ; preds = %19
  %32 = getelementptr inbounds nuw i8, ptr %1, i64 352
  %33 = load i64, ptr %32, align 8, !tbaa !30
  %34 = getelementptr inbounds nuw i8, ptr %0, i64 360
  %35 = load ptr, ptr %34, align 8, !tbaa !10
  %36 = getelementptr inbounds nuw i8, ptr %35, i64 2576
  %37 = load i64, ptr %36, align 8, !tbaa !29
  %38 = udiv i64 %33, %37
  %39 = getelementptr inbounds nuw i8, ptr %35, i64 1032
  %40 = getelementptr inbounds nuw i8, ptr %35, i64 2568
  %41 = load i32, ptr %40, align 8, !tbaa !28
  %42 = sext i32 %41 to i64
  %43 = getelementptr inbounds [32 x %struct.H5S_hyper_dim_t], ptr %39, i64 0, i64 %42
  %44 = icmp ugt i64 %37, %33
  br i1 %44, label %45, label %49

45:                                               ; preds = %.thread, %31
  %46 = phi ptr [ %30, %.thread ], [ %43, %31 ]
  br i1 %2, label %47, label %H5S__hyper_get_clip_extent_real.exit

47:                                               ; preds = %45
  %48 = load i64, ptr %46, align 8, !tbaa !44
  br label %H5S__hyper_get_clip_extent_real.exit

49:                                               ; preds = %31
  %50 = getelementptr inbounds nuw i8, ptr %43, i64 24
  %51 = load i64, ptr %50, align 8, !tbaa !46
  %52 = icmp eq i64 %51, -1
  br i1 %52, label %57, label %53

53:                                               ; preds = %49
  %54 = getelementptr inbounds nuw i8, ptr %43, i64 8
  %55 = load i64, ptr %54, align 8, !tbaa !45
  %56 = icmp eq i64 %51, %55
  br i1 %56, label %57, label %60

57:                                               ; preds = %53, %49
  %58 = load i64, ptr %43, align 8, !tbaa !44
  %59 = add i64 %58, %38
  br label %H5S__hyper_get_clip_extent_real.exit

60:                                               ; preds = %53
  %61 = udiv i64 %38, %51
  %.recomposed = urem i64 %38, %51
  %62 = mul i64 %61, %51
  %.not.i = icmp eq i64 %38, %62
  %63 = load i64, ptr %43, align 8, !tbaa !44
  br i1 %.not.i, label %68, label %64

64:                                               ; preds = %60
  %65 = mul i64 %61, %55
  %66 = add i64 %.recomposed, %65
  %67 = add i64 %66, %63
  br label %H5S__hyper_get_clip_extent_real.exit

68:                                               ; preds = %60
  br i1 %2, label %69, label %72

69:                                               ; preds = %68
  %70 = mul i64 %61, %55
  %71 = add i64 %63, %70
  br label %H5S__hyper_get_clip_extent_real.exit

72:                                               ; preds = %68
  %73 = add i64 %61, -1
  %74 = mul i64 %73, %55
  %75 = add i64 %63, %51
  %76 = add i64 %75, %74
  br label %H5S__hyper_get_clip_extent_real.exit

H5S__hyper_get_clip_extent_real.exit:             ; preds = %72, %69, %64, %57, %47, %45, %12, %16
  %.0 = phi i64 [ 0, %12 ], [ 0, %16 ], [ %59, %57 ], [ %67, %64 ], [ %71, %69 ], [ %76, %72 ], [ %48, %47 ], [ 0, %45 ]
  ret i64 %.0
}